; Function Attrs: mustprogress uwtable
define hidden noundef zeroext i1 @_ZNK7datalog3bmc9is_linearEv(ptr noundef nonnull readonly align 8 captures(none) dereferenceable(368) %0) local_unnamed_addr #3 align 2 {
  %2 = getelementptr inbounds nuw i8, ptr %0, i64 96
  %3 = load ptr, ptr %2, align 8, !tbaa !224
  %4 = icmp eq ptr %3, null
  br i1 %4, label %.critedge, label %_ZNK7datalog8rule_set13get_num_rulesEv.exit

_ZNK7datalog8rule_set13get_num_rulesEv.exit:      ; preds = %1
  %5 = getelementptr inbounds i8, ptr %3, i64 -4
  %6 = load i32, ptr %5, align 4, !tbaa !242
  %.not9 = icmp eq i32 %6, 0
  br i1 %.not9, label %.critedge, label %.lr.ph

.lr.ph:                                           ; preds = %_ZNK7datalog8rule_set13get_num_rulesEv.exit
  %7 = getelementptr inbounds nuw i8, ptr %0, i64 80
  %wide.trip.count = zext i32 %6 to i64
  br label %9

8:                                                ; preds = %16
  %indvars.iv.next = add nuw nsw i64 %indvars.iv, 1
  %exitcond.not = icmp eq i64 %indvars.iv.next, %wide.trip.count
  br i1 %exitcond.not, label %.critedge, label %9, !llvm.loop !243

9:                                                ; preds = %.lr.ph, %8
  %indvars.iv = phi i64 [ 0, %.lr.ph ], [ %indvars.iv.next, %8 ]
  %10 = load ptr, ptr %2, align 8, !tbaa !224
  %11 = getelementptr inbounds nuw ptr, ptr %10, i64 %indvars.iv
  %12 = load ptr, ptr %11, align 8, !tbaa !244
  %13 = getelementptr inbounds nuw i8, ptr %12, i64 68
  %14 = load i32, ptr %13, align 4, !tbaa !245
  %15 = icmp ugt i32 %14, 1
  br i1 %15, label %.critedge, label %16

16:                                               ; preds = %9
  %17 = load ptr, ptr %7, align 8, !tbaa !249
  %18 = tail call noundef zeroext i1 @_ZNK7datalog12rule_manager15has_quantifiersERKNS_4ruleE(ptr noundef nonnull align 8 dereferenceable(1104) %17, ptr noundef nonnull align 8 dereferenceable(80) %12)
  br i1 %18, label %.critedge, label %8

.critedge:                                        ; preds = %16, %9, %8, %1, %_ZNK7datalog8rule_set13get_num_rulesEv.exit
  %.not.lcssa = phi i1 [ true, %_ZNK7datalog8rule_set13get_num_rulesEv.exit ], [ true, %1 ], [ true, %8 ], [ false, %9 ], [ false, %16 ]
  ret i1 %.not.lcssa
}